libfm-qt.so.1 libfm-qt1 #MINVER#
 _ZN2Fm10FolderMenu11onCreateNewEv@Base 0.8.0
 _ZN2Fm10FolderMenu11qt_metacallEN11QMetaObject4CallEiPPv@Base 0.8.0
 _ZN2Fm10FolderMenu11qt_metacastEPKc@Base 0.8.0
 _ZN2Fm10FolderMenu14createSortMenuEv@Base 0.8.0
 _ZN2Fm10FolderMenu15addSortMenuItemE7QStringi@Base 0.8.0
 _ZN2Fm10FolderMenu15onCreateNewFileEv@Base 0.8.0
 _ZN2Fm10FolderMenu16staticMetaObjectE@Base 0.8.0
 _ZN2Fm10FolderMenu17onCreateNewFolderEv@Base 0.8.0
 _ZN2Fm10FolderMenu19createCreateNewMenuEv@Base 0.8.0
 _ZN2Fm10FolderMenu21onSortActionTriggeredEb@Base 0.8.0
 _ZN2Fm10FolderMenu22onPasteActionTriggeredEv@Base 0.8.0
 _ZN2Fm10FolderMenu26onSelectAllActionTriggeredEv@Base 0.8.0
 _ZN2Fm10FolderMenu26onSortOrderActionTriggeredEb@Base 0.8.0
 _ZN2Fm10FolderMenu27onPropertiesActionTriggeredEv@Base 0.8.0
 _ZN2Fm10FolderMenu27onShowHiddenActionTriggeredEb@Base 0.8.0
 _ZN2Fm10FolderMenu28onFolderFirstActionTriggeredEb@Base 0.8.0
 _ZN2Fm10FolderMenu30onCaseSensitiveActionTriggeredEb@Base 0.8.0
 _ZN2Fm10FolderMenu32onInvertSelectionActionTriggeredEv@Base 0.8.0
 _ZN2Fm10FolderMenuC1EPNS_10FolderViewEP7QWidget@Base 0.8.0
 _ZN2Fm10FolderMenuC2EPNS_10FolderViewEP7QWidget@Base 0.8.0
 _ZN2Fm10FolderMenuD0Ev@Base 0.8.0
 _ZN2Fm10FolderMenuD1Ev@Base 0.8.0
 _ZN2Fm10FolderMenuD2Ev@Base 0.8.0
 _ZN2Fm10FolderView10selChangedEi@Base 0.8.0
 _ZN2Fm10FolderView11eventFilterEP7QObjectP6QEvent@Base 0.8.0
 _ZN2Fm10FolderView11qt_metacallEN11QMetaObject4CallEiPPv@Base 0.8.0
 _ZN2Fm10FolderView11qt_metacastEPKc@Base 0.8.0
 _ZN2Fm10FolderView11setIconSizeENS0_8ViewModeE5QSize@Base 0.8.0
 _ZN2Fm10FolderView11setViewModeENS0_8ViewModeE@Base 0.8.0
 _ZN2Fm10FolderView11sortChangedEv@Base 0.8.0
 _ZN2Fm10FolderView13emitClickedAtENS0_9ClickTypeERK6QPoint@Base 0.8.0
 _ZN2Fm10FolderView13onFileClickedEiP11_FmFileInfo@Base 0.8.0
 _ZN2Fm10FolderView14childDropEventEP10QDropEvent@Base 0.8.0
 _ZN2Fm10FolderView14updateGridSizeEv@Base 0.8.0
 _ZN2Fm10FolderView15invertSelectionEv@Base 0.8.0
 _ZN2Fm10FolderView15onItemActivatedE11QModelIndex@Base 0.8.0
 _ZN2Fm10FolderView15prepareFileMenuEPNS_8FileMenuE@Base 0.8.0
 _ZN2Fm10FolderView16contextMenuEventEP17QContextMenuEvent@Base 0.8.0
 _ZN2Fm10FolderView16staticMetaObjectE@Base 0.8.0
 _ZN2Fm10FolderView17prepareFolderMenuEPNS_10FolderMenuE@Base 0.8.0
 _ZN2Fm10FolderView18childDragMoveEventEP14QDragMoveEvent@Base 0.8.0
 _ZN2Fm10FolderView18onSelectionChangedERK14QItemSelectionS3_@Base 0.8.0
 _ZN2Fm10FolderView19childDragEnterEventEP15QDragEnterEvent@Base 0.8.0
 _ZN2Fm10FolderView19childDragLeaveEventEP15QDragLeaveEvent@Base 0.8.0
 _ZN2Fm10FolderView19onSelChangedTimeoutEv@Base 0.8.0
 _ZN2Fm10FolderView20childMousePressEventEP11QMouseEvent@Base 0.8.0
 _ZN2Fm10FolderView21setAutoSelectionDelayEi@Base 0.8.0
 _ZN2Fm10FolderView22onAutoSelectionTimeoutEv@Base 0.8.0
 _ZN2Fm10FolderView5eventEP6QEvent@Base 0.8.0
 _ZN2Fm10FolderView7clickedEiP11_FmFileInfo@Base 0.8.0
 _ZN2Fm10FolderView8setModelEPNS_16ProxyFolderModelE@Base 0.8.0
 _ZN2Fm10FolderView9selectAllEv@Base 0.8.0
 _ZN2Fm10FolderViewC1ENS0_8ViewModeEP7QWidget@Base 0.8.0
 _ZN2Fm10FolderViewC2ENS0_8ViewModeEP7QWidget@Base 0.8.0
 _ZN2Fm10FolderViewD0Ev@Base 0.8.0
 _ZN2Fm10FolderViewD1Ev@Base 0.8.0
 _ZN2Fm10FolderViewD2Ev@Base 0.8.0
 _ZN2Fm10FontButton11qt_metacallEN11QMetaObject4CallEiPPv@Base 0.8.0
 _ZN2Fm10FontButton11qt_metacastEPKc@Base 0.8.0
 _ZN2Fm10FontButton16staticMetaObjectE@Base 0.8.0
 _ZN2Fm10FontButton7changedEv@Base 0.8.0
 _ZN2Fm10FontButton7setFontE5QFont@Base 0.8.0
 _ZN2Fm10FontButton9onClickedEv@Base 0.8.0
 _ZN2Fm10FontButtonC1EP7QWidget@Base 0.8.0
 _ZN2Fm10FontButtonC2EP7QWidget@Base 0.8.0
 _ZN2Fm10FontButtonD0Ev@Base 0.8.0
 _ZN2Fm10FontButtonD1Ev@Base 0.8.0
 _ZN2Fm10FontButtonD2Ev@Base 0.8.0
 _ZN2Fm10PlacesView11qt_metacallEN11QMetaObject4CallEiPPv@Base 0.8.0
 _ZN2Fm10PlacesView11qt_metacastEPKc@Base 0.8.0
 _ZN2Fm10PlacesView12onEmptyTrashEv@Base 0.8.0
 _ZN2Fm10PlacesView13dragMoveEventEP14QDragMoveEvent@Base 0.8.0
 _ZN2Fm10PlacesView13onEjectVolumeEv@Base 0.8.0
 _ZN2Fm10PlacesView13onMountVolumeEv@Base 0.8.0
 _ZN2Fm10PlacesView14chdirRequestedEiP7_FmPath@Base 0.8.0
 _ZN2Fm10PlacesView14onUnmountMountEv@Base 0.8.0
 _ZN2Fm10PlacesView14setCurrentPathEP7_FmPath@Base 0.8.0
 _ZN2Fm10PlacesView15onUnmountVolumeEv@Base 0.8.0
 _ZN2Fm10PlacesView16contextMenuEventEP17QContextMenuEvent@Base 0.8.0
 _ZN2Fm10PlacesView16onDeleteBookmarkEv@Base 0.8.0
 _ZN2Fm10PlacesView16onRenameBookmarkEv@Base 0.8.0
 _ZN2Fm10PlacesView16staticMetaObjectE@Base 0.8.0
 _ZN2Fm10PlacesView20onEjectButtonClickedEPNS_15PlacesModelItemE@Base 0.8.0
 _ZN2Fm10PlacesView9dropEventEP10QDropEvent@Base 0.8.0
 _ZN2Fm10PlacesView9onClickedERK11QModelIndex@Base 0.8.0
 _ZN2Fm10PlacesViewC1EP7QWidget@Base 0.8.0
 _ZN2Fm10PlacesViewC2EP7QWidget@Base 0.8.0
 _ZN2Fm10PlacesViewD0Ev@Base 0.8.0
 _ZN2Fm10PlacesViewD1Ev@Base 0.8.0
 _ZN2Fm10PlacesViewD2Ev@Base 0.8.0
 _ZN2Fm10createFileENS_14CreateFileTypeEP7_FmPathP11_FmTemplateP7QWidget@Base 0.8.0
 _ZN2Fm10renameFileEP11_FmFileInfoP7QWidget@Base 0.8.0
 _ZN2Fm11AppMenuView11qt_metacallEN11QMetaObject4CallEiPPv@Base 0.8.0
 _ZN2Fm11AppMenuView11qt_metacastEPKc@Base 0.8.0
 _ZN2Fm11AppMenuView11selectedAppEv@Base 0.8.0
 _ZN2Fm11AppMenuView12addMenuItemsEP13QStandardItemP13_MenuCacheDir@Base 0.8.0
 _ZN2Fm11AppMenuView12selectedItemEv@Base 0.8.0
 _ZN2Fm11AppMenuView13isAppSelectedEv@Base 0.8.0
 _ZN2Fm11AppMenuView16selectionChangedEv@Base 0.8.0
 _ZN2Fm11AppMenuView16staticMetaObjectE@Base 0.8.0
 _ZN2Fm11AppMenuView17onMenuCacheReloadEP10_MenuCache@Base 0.8.0
 _ZN2Fm11AppMenuView20selectedAppDesktopIdEv@Base 0.8.0
 _ZN2Fm11AppMenuView22selectedAppDesktopPathEv@Base 0.8.0
 _ZN2Fm11AppMenuView26selectedAppDesktopFilePathEv@Base 0.8.0
 _ZN2Fm11AppMenuViewC1EP7QWidget@Base 0.8.0
 _ZN2Fm11AppMenuViewC2EP7QWidget@Base 0.8.0
 _ZN2Fm11AppMenuViewD0Ev@Base 0.8.0
 _ZN2Fm11AppMenuViewD1Ev@Base 0.8.0
 _ZN2Fm11AppMenuViewD2Ev@Base 0.8.0
 _ZN2Fm11ColorButton11qt_metacallEN11QMetaObject4CallEiPPv@Base 0.8.0
 _ZN2Fm11ColorButton11qt_metacastEPKc@Base 0.8.0
 _ZN2Fm11ColorButton16staticMetaObjectE@Base 0.8.0
 _ZN2Fm11ColorButton7changedEv@Base 0.8.0
 _ZN2Fm11ColorButton8setColorERK6QColor@Base 0.8.0
 _ZN2Fm11ColorButton9onClickedEv@Base 0.8.0
 _ZN2Fm11ColorButtonC1EP7QWidget@Base 0.8.0
 _ZN2Fm11ColorButtonC2EP7QWidget@Base 0.8.0
 _ZN2Fm11ColorButtonD0Ev@Base 0.8.0
 _ZN2Fm11ColorButtonD1Ev@Base 0.8.0
 _ZN2Fm11ColorButtonD2Ev@Base 0.8.0
 _ZN2Fm11DirTreeView10onExpandedERK11QModelIndex@Base 0.8.0
 _ZN2Fm11DirTreeView11onCollapsedERK11QModelIndex@Base 0.8.0
 _ZN2Fm11DirTreeView11onRowLoadedERK11QModelIndex@Base 0.8.0
 _ZN2Fm11DirTreeView11qt_metacallEN11QMetaObject4CallEiPPv@Base 0.8.0
 _ZN2Fm11DirTreeView11qt_metacastEPKc@Base 0.8.0
 _ZN2Fm11DirTreeView14chdirRequestedEiP7_FmPath@Base 0.8.0
 _ZN2Fm11DirTreeView14setCurrentPathEP7_FmPath@Base 0.8.0
 _ZN2Fm11DirTreeView16contextMenuEventEP17QContextMenuEvent@Base 0.8.0
 _ZN2Fm11DirTreeView16staticMetaObjectE@Base 0.8.0
 _ZN2Fm11DirTreeView17expandPendingPathEv@Base 0.8.0
 _ZN2Fm11DirTreeView18cancelPendingChdirEv@Base 0.8.0
 _ZN2Fm11DirTreeView18onSelectionChangedERK14QItemSelectionS3_@Base 0.8.0
 _ZN2Fm11DirTreeView8setModelEP18QAbstractItemModel@Base 0.8.0
 _ZN2Fm11DirTreeViewC1EP7QWidget@Base 0.8.0
 _ZN2Fm11DirTreeViewC2EP7QWidget@Base 0.8.0
 _ZN2Fm11DirTreeViewD0Ev@Base 0.8.0
 _ZN2Fm11DirTreeViewD1Ev@Base 0.8.0
 _ZN2Fm11DirTreeViewD2Ev@Base 0.8.0
 _ZN2Fm11FolderModel11insertFilesEiP15_FmFileInfoList@Base 0.8.0
 _ZN2Fm11FolderModel11qt_metacallEN11QMetaObject4CallEiPPv@Base 0.8.0
 _ZN2Fm11FolderModel11qt_metacastEPKc@Base 0.8.0
 _ZN2Fm11FolderModel11updateIconsEv@Base 0.8.0
 _ZN2Fm11FolderModel12dropMimeDataEPK9QMimeDataN2Qt10DropActionEiiRK11QModelIndex@Base 0.8.0
 _ZN2Fm11FolderModel12onFilesAddedEP9_FmFolderP7_GSListPv@Base 0.8.0
 _ZN2Fm11FolderModel14findItemByNameEPKcPi@Base 0.8.0
 _ZN2Fm11FolderModel14findItemByPathEP7_FmPathPi@Base 0.8.0
 _ZN2Fm11FolderModel14onFilesChangedEP9_FmFolderP7_GSListPv@Base 0.8.0
 _ZN2Fm11FolderModel14onFilesRemovedEP9_FmFolderP7_GSListPv@Base 0.8.0
 _ZN2Fm11FolderModel14onStartLoadingEP9_FmFolderPv@Base 0.8.0
 _ZN2Fm11FolderModel15cacheThumbnailsEi@Base 0.8.0
 _ZN2Fm11FolderModel15onFinishLoadingEP9_FmFolderPv@Base 0.8.0
 _ZN2Fm11FolderModel15thumbnailLoadedERK11QModelIndexi@Base 0.8.0
 _ZN2Fm11FolderModel16staticMetaObjectE@Base 0.8.0
 _ZN2Fm11FolderModel17onThumbnailLoadedEP18_FmThumbnailLoaderPv@Base 0.8.0
 _ZN2Fm11FolderModel17releaseThumbnailsEi@Base 0.8.0
 _ZN2Fm11FolderModel18findItemByFileInfoEP11_FmFileInfoPi@Base 0.8.0
 _ZN2Fm11FolderModel18thumbnailFromIndexERK11QModelIndexi@Base 0.8.0
 _ZN2Fm11FolderModel9removeAllEv@Base 0.8.0
 _ZN2Fm11FolderModel9setFolderEP9_FmFolder@Base 0.8.0
 _ZN2Fm11FolderModelC1Ev@Base 0.8.0
 _ZN2Fm11FolderModelC2Ev@Base 0.8.0
 _ZN2Fm11FolderModelD0Ev@Base 0.8.0
 _ZN2Fm11FolderModelD1Ev@Base 0.8.0
 _ZN2Fm11FolderModelD2Ev@Base 0.8.0
 _ZN2Fm11PlacesModel10ItemActionD0Ev@Base 0.8.0
 _ZN2Fm11PlacesModel10ItemActionD1Ev@Base 0.8.0
 _ZN2Fm11PlacesModel10ItemActionD2Ev@Base 0.8.0
 _ZN2Fm11PlacesModel11qt_metacallEN11QMetaObject4CallEiPPv@Base 0.8.0
 _ZN2Fm11PlacesModel11qt_metacastEPKc@Base 0.8.0
 _ZN2Fm11PlacesModel11updateIconsEv@Base 0.8.0
 _ZN2Fm11PlacesModel11updateTrashEv@Base 0.8.0
 _ZN2Fm11PlacesModel12dropMimeDataEPK9QMimeDataN2Qt10DropActionEiiRK11QModelIndex@Base 0.8.0
 _ZN2Fm11PlacesModel12itemFromPathEP13QStandardItemP7_FmPath@Base 0.8.0
 _ZN2Fm11PlacesModel12itemFromPathEP7_FmPath@Base 0.8.0
 _ZN2Fm11PlacesModel12onMountAddedEP15_GVolumeMonitorP7_GMountPS0_@Base 0.8.0
 _ZN2Fm11PlacesModel12setShowTrashEb@Base 0.8.0
 _ZN2Fm11PlacesModel13itemFromMountEP7_GMount@Base 0.8.0
 _ZN2Fm11PlacesModel13loadBookmarksEv@Base 0.8.0
 _ZN2Fm11PlacesModel13onVolumeAddedEP15_GVolumeMonitorP8_GVolumePS0_@Base 0.8.0
 _ZN2Fm11PlacesModel14itemFromVolumeEP8_GVolume@Base 0.8.0
 _ZN2Fm11PlacesModel14onMountChangedEP15_GVolumeMonitorP7_GMountPS0_@Base 0.8.0
 _ZN2Fm11PlacesModel14onMountRemovedEP15_GVolumeMonitorP7_GMountPS0_@Base 0.8.0
 _ZN2Fm11PlacesModel14onTrashChangedEP13_GFileMonitorP6_GFileS4_17GFileMonitorEventPS0_@Base 0.8.0
 _ZN2Fm11PlacesModel14setShowDesktopEb@Base 0.8.0
 _ZN2Fm11PlacesModel15createTrashItemEv@Base 0.8.0
 _ZN2Fm11PlacesModel15onVolumeChangedEP15_GVolumeMonitorP8_GVolumePS0_@Base 0.8.0
 _ZN2Fm11PlacesModel15onVolumeRemovedEP15_GVolumeMonitorP8_GVolumePS0_@Base 0.8.0
 _ZN2Fm11PlacesModel16itemFromBookmarkEP15_FmBookmarkItem@Base 0.8.0
 _ZN2Fm11PlacesModel16staticMetaObjectE@Base 0.8.0
 _ZN2Fm11PlacesModel18onBookmarksChangedEP12_FmBookmarksPS0_@Base 0.8.0
 _ZN2Fm11PlacesModel19setShowApplicationsEb@Base 0.8.0
 _ZN2Fm11PlacesModelC1EP7QObject@Base 0.8.0
 _ZN2Fm11PlacesModelC2EP7QObject@Base 0.8.0
 _ZN2Fm11PlacesModelD0Ev@Base 0.8.0
 _ZN2Fm11PlacesModelD1Ev@Base 0.8.0
 _ZN2Fm11PlacesModelD2Ev@Base 0.8.0
 _ZN2Fm11gidFromNameE7QString@Base 0.8.0
 _ZN2Fm11uidFromNameE7QString@Base 0.8.0
 _ZN2Fm12DirTreeModel11qt_metacallEN11QMetaObject4CallEiPPv@Base 0.8.0
 _ZN2Fm12DirTreeModel11qt_metacastEPKc@Base 0.8.0
 _ZN2Fm12DirTreeModel13setShowHiddenEb@Base 0.8.0
 _ZN2Fm12DirTreeModel16staticMetaObjectE@Base 0.8.0
 _ZN2Fm12DirTreeModel4iconERK11QModelIndex@Base 0.8.0
 _ZN2Fm12DirTreeModel7addRootEP11_FmFileInfo@Base 0.8.0
 _ZN2Fm12DirTreeModel7loadRowERK11QModelIndex@Base 0.8.0
 _ZN2Fm12DirTreeModel8dispNameERK11QModelIndex@Base 0.8.0
 _ZN2Fm12DirTreeModel8fileInfoERK11QModelIndex@Base 0.8.0
 _ZN2Fm12DirTreeModel8filePathERK11QModelIndex@Base 0.8.0
 _ZN2Fm12DirTreeModel8isLoadedERK11QModelIndex@Base 0.8.0
 _ZN2Fm12DirTreeModel9rowLoadedERK11QModelIndex@Base 0.8.0
 _ZN2Fm12DirTreeModel9unloadRowERK11QModelIndex@Base 0.8.0
 _ZN2Fm12DirTreeModelC1EP7QObject@Base 0.8.0
 _ZN2Fm12DirTreeModelC2EP7QObject@Base 0.8.0
 _ZN2Fm12DirTreeModelD0Ev@Base 0.8.0
 _ZN2Fm12DirTreeModelD1Ev@Base 0.8.0
 _ZN2Fm12DirTreeModelD2Ev@Base 0.8.0
 _ZN2Fm12FileLauncher10openFolderEP18_GAppLaunchContextP6_GListPP7_GError@Base 0.8.0
 _ZN2Fm12FileLauncher11launchFilesEP7QWidgetP6_GList@Base 0.8.0
 _ZN2Fm12FileLauncher11launchPathsEP7QWidgetP6_GList@Base 0.8.0
 _ZN2Fm12FileLauncher3askEPKcPKPci@Base 0.8.0
 _ZN2Fm12FileLauncher5errorEP18_GAppLaunchContextP7_GErrorP7_FmPath@Base 0.8.0
 _ZN2Fm12FileLauncher5funcsE@Base 0.8.0
 _ZN2Fm12FileLauncher6getAppEP6_GListP11_FmMimeTypePP7_GError@Base 0.8.0
 _ZN2Fm12FileLauncher8execFileEP11_FmFileInfo@Base 0.8.0
 _ZN2Fm12FileLauncherC1Ev@Base 0.8.0
 _ZN2Fm12FileLauncherC2Ev@Base 0.8.0
 _ZN2Fm12FileLauncherD0Ev@Base 0.8.0
 _ZN2Fm12FileLauncherD1Ev@Base 0.8.0
 _ZN2Fm12FileLauncherD2Ev@Base 0.8.0
 _ZN2Fm12RenameDialog11qt_metacallEN11QMetaObject4CallEiPPv@Base 0.8.0
 _ZN2Fm12RenameDialog11qt_metacastEPKc@Base 0.8.0
 _ZN2Fm12RenameDialog15onIgnoreClickedEv@Base 0.8.0
 _ZN2Fm12RenameDialog15onRenameClickedEv@Base 0.8.0
 _ZN2Fm12RenameDialog16staticMetaObjectE@Base 0.8.0
 _ZN2Fm12RenameDialog17onFileNameChangedE7QString@Base 0.8.0
 _ZN2Fm12RenameDialog6acceptEv@Base 0.8.0
 _ZN2Fm12RenameDialog6rejectEv@Base 0.8.0
 _ZN2Fm12RenameDialogC1EP11_FmFileInfoS2_P7QWidget6QFlagsIN2Qt10WindowTypeEE@Base 0.8.0
 _ZN2Fm12RenameDialogC2EP11_FmFileInfoS2_P7QWidget6QFlagsIN2Qt10WindowTypeEE@Base 0.8.0
 _ZN2Fm12RenameDialogD0Ev@Base 0.8.0
 _ZN2Fm12RenameDialogD1Ev@Base 0.8.0
 _ZN2Fm12RenameDialogD2Ev@Base 0.8.0
 _ZN2Fm13BrowseHistory11setMaxCountEi@Base 0.8.0
 _ZN2Fm13BrowseHistory15setCurrentIndexEi@Base 0.8.0
 _ZN2Fm13BrowseHistory3addEP7_FmPathi@Base 0.8.0
 _ZN2Fm13BrowseHistory7forwardEv@Base 0.8.0
 _ZN2Fm13BrowseHistory8backwardEv@Base 0.8.0
 _ZN2Fm13BrowseHistoryC1Ev@Base 0.8.0
 _ZN2Fm13BrowseHistoryC2Ev@Base 0.8.0
 _ZN2Fm13BrowseHistoryD0Ev@Base 0.8.0
 _ZN2Fm13BrowseHistoryD1Ev@Base 0.8.0
 _ZN2Fm13BrowseHistoryD2Ev@Base 0.8.0
 _ZN2Fm13FileOperation10showDialogEv@Base 0.8.0
 _ZN2Fm13FileOperation10trashFilesEP11_FmPathListbP7QWidget@Base 0.8.0
 _ZN2Fm13FileOperation11deleteFilesEP11_FmPathListbP7QWidget@Base 0.8.0
 _ZN2Fm13FileOperation11onUiTimeoutEv@Base 0.8.0
 _ZN2Fm13FileOperation11qt_metacallEN11QMetaObject4CallEiPPv@Base 0.8.0
 _ZN2Fm13FileOperation11qt_metacastEPKc@Base 0.8.0
 _ZN2Fm13FileOperation12handleFinishEv@Base 0.8.0
 _ZN2Fm13FileOperation12symlinkFilesEP11_FmPathListP7_FmPathP7QWidget@Base 0.8.0
 _ZN2Fm13FileOperation13disconnectJobEv@Base 0.8.0
 _ZN2Fm13FileOperation15changeAttrFilesEP11_FmPathListP7QWidget@Base 0.8.0
 _ZN2Fm13FileOperation15onFileOpsJobAskEP13_FmFileOpsJobPKcPKPcPS0_@Base 0.8.0
 _ZN2Fm13FileOperation16staticMetaObjectE@Base 0.8.0
 _ZN2Fm13FileOperation17onFileOpsJobErrorEP13_FmFileOpsJobP7_GError18FmJobErrorSeverityPS0_@Base 0.8.0
 _ZN2Fm13FileOperation19onFileOpsJobCurFileEP13_FmFileOpsJobPKcPS0_@Base 0.8.0
 _ZN2Fm13FileOperation19onFileOpsJobPercentEP13_FmFileOpsJobjPS0_@Base 0.8.0
 _ZN2Fm13FileOperation20onFileOpsJobFinishedEP13_FmFileOpsJobPS0_@Base 0.8.0
 _ZN2Fm13FileOperation20onFileOpsJobPreparedEP13_FmFileOpsJobPS0_@Base 0.8.0
 _ZN2Fm13FileOperation21onFileOpsJobAskRenameEP13_FmFileOpsJobP11_FmFileInfoS4_PPcPS0_@Base 0.8.0
 _ZN2Fm13FileOperation21onFileOpsJobCancelledEP13_FmFileOpsJobPS0_@Base 0.8.0
 _ZN2Fm13FileOperation3runEv@Base 0.8.0
 _ZN2Fm13FileOperation8finishedEv@Base 0.8.0
 _ZN2Fm13FileOperation9copyFilesEP11_FmPathListP7_FmPathP7QWidget@Base 0.8.0
 _ZN2Fm13FileOperation9moveFilesEP11_FmPathListP7_FmPathP7QWidget@Base 0.8.0
 _ZN2Fm13FileOperationC1ENS0_4TypeEP11_FmPathListP7QObject@Base 0.8.0
 _ZN2Fm13FileOperationC2ENS0_4TypeEP11_FmPathListP7QObject@Base 0.8.0
 _ZN2Fm13FileOperationD0Ev@Base 0.8.0
 _ZN2Fm13FileOperationD1Ev@Base 0.8.0
 _ZN2Fm13FileOperationD2Ev@Base 0.8.0
 _ZN2Fm14BookmarkActionC1EP15_FmBookmarkItemP7QObject@Base 0.8.0
 _ZN2Fm14BookmarkActionC2EP15_FmBookmarkItemP7QObject@Base 0.8.0
 _ZN2Fm14MountOperation11qt_metacallEN11QMetaObject4CallEiPPv@Base 0.8.0
 _ZN2Fm14MountOperation11qt_metacastEPKc@Base 0.8.0
 _ZN2Fm14MountOperation12handleFinishEP7_GError@Base 0.8.0
 _ZN2Fm14MountOperation13onAskPasswordEP16_GMountOperationPcS3_S3_17GAskPasswordFlagsPS0_@Base 0.8.0
 _ZN2Fm14MountOperation13onAskQuestionEP16_GMountOperationPcPS3_PS0_@Base 0.8.0
 _ZN2Fm14MountOperation14prepareUnmountEP7_GMount@Base 0.8.0
 _ZN2Fm14MountOperation15onShowProcessesEP16_GMountOperationPcP7_GArrayPS3_PS0_@Base 0.8.0
 _ZN2Fm14MountOperation16staticMetaObjectE@Base 0.8.0
 _ZN2Fm14MountOperation19onMountFileFinishedEP6_GFileP13_GAsyncResultP8QPointerIS0_E@Base 0.8.0
 _ZN2Fm14MountOperation20onEjectMountFinishedEP7_GMountP13_GAsyncResultP8QPointerIS0_E@Base 0.8.0
 _ZN2Fm14MountOperation21onEjectVolumeFinishedEP8_GVolumeP13_GAsyncResultP8QPointerIS0_E@Base 0.8.0
 _ZN2Fm14MountOperation21onMountVolumeFinishedEP8_GVolumeP13_GAsyncResultP8QPointerIS0_E@Base 0.8.0
 _ZN2Fm14MountOperation21onShowUnmountProgressEP16_GMountOperationPcllPS0_@Base 0.8.0
 _ZN2Fm14MountOperation22onUnmountMountFinishedEP7_GMountP13_GAsyncResultP8QPointerIS0_E@Base 0.8.0
 _ZN2Fm14MountOperation4waitEv@Base 0.8.0
 _ZN2Fm14MountOperation7onAbortEP16_GMountOperationPS0_@Base 0.8.0
 _ZN2Fm14MountOperation8finishedEP7_GError@Base 0.8.0
 _ZN2Fm14MountOperationC1EbP7QWidget@Base 0.8.0
 _ZN2Fm14MountOperationC2EbP7QWidget@Base 0.8.0
 _ZN2Fm14MountOperationD0Ev@Base 0.8.0
 _ZN2Fm14MountOperationD1Ev@Base 0.8.0
 _ZN2Fm14MountOperationD2Ev@Base 0.8.0
 _ZN2Fm15FilePropsDialog11qt_metacallEN11QMetaObject4CallEiPPv@Base 0.8.0
 _ZN2Fm15FilePropsDialog11qt_metacastEPKc@Base 0.8.0
 _ZN2Fm15FilePropsDialog15initGeneralPageEv@Base 0.8.0
 _ZN2Fm15FilePropsDialog16initApplicationsEv@Base 0.8.0
 _ZN2Fm15FilePropsDialog16staticMetaObjectE@Base 0.8.0
 _ZN2Fm15FilePropsDialog19initPermissionsPageEv@Base 0.8.0
 _ZN2Fm15FilePropsDialog22onDeepCountJobFinishedEP15_FmDeepCountJobPS0_@Base 0.8.0
 _ZN2Fm15FilePropsDialog22onFileSizeTimerTimeoutEv@Base 0.8.0
 _ZN2Fm15FilePropsDialog6acceptEv@Base 0.8.0
 _ZN2Fm15FilePropsDialog9initOwnerEv@Base 0.8.0
 _ZN2Fm15FilePropsDialogC1EP15_FmFileInfoListP7QWidget6QFlagsIN2Qt10WindowTypeEE@Base 0.8.0
 _ZN2Fm15FilePropsDialogC2EP15_FmFileInfoListP7QWidget6QFlagsIN2Qt10WindowTypeEE@Base 0.8.0
 _ZN2Fm15FilePropsDialogD0Ev@Base 0.8.0
 _ZN2Fm15FilePropsDialogD1Ev@Base 0.8.0
 _ZN2Fm15FilePropsDialogD2Ev@Base 0.8.0
 _ZN2Fm15FolderModelItem13findThumbnailEi@Base 0.8.0
 _ZN2Fm15FolderModelItem15removeThumbnailEi@Base 0.8.0
 _ZN2Fm15FolderModelItemC1EP11_FmFileInfo@Base 0.8.0
 _ZN2Fm15FolderModelItemC1ERKS0_@Base 0.8.0
 _ZN2Fm15FolderModelItemC2EP11_FmFileInfo@Base 0.8.0
 _ZN2Fm15FolderModelItemC2ERKS0_@Base 0.8.0
 _ZN2Fm15FolderModelItemD0Ev@Base 0.8.0
 _ZN2Fm15FolderModelItemD1Ev@Base 0.8.0
 _ZN2Fm15FolderModelItemD2Ev@Base 0.8.0
 _ZN2Fm15PlacesModelItem10updateIconEv@Base 0.8.0
 _ZN2Fm15PlacesModelItem11setFileInfoEP11_FmFileInfo@Base 0.8.0
 _ZN2Fm15PlacesModelItem7setIconEP6_GIcon@Base 0.8.0
 _ZN2Fm15PlacesModelItem7setIconEP7_FmIcon@Base 0.8.0
 _ZN2Fm15PlacesModelItem7setPathEP7_FmPath@Base 0.8.0
 _ZN2Fm15PlacesModelItemC1E5QIcon7QStringP7_FmPath@Base 0.8.0
 _ZN2Fm15PlacesModelItemC1EP7_FmIcon7QStringP7_FmPath@Base 0.8.0
 _ZN2Fm15PlacesModelItemC1EPKc7QStringP7_FmPath@Base 0.8.0
 _ZN2Fm15PlacesModelItemC1Ev@Base 0.8.0
 _ZN2Fm15PlacesModelItemC2E5QIcon7QStringP7_FmPath@Base 0.8.0
 _ZN2Fm15PlacesModelItemC2EP7_FmIcon7QStringP7_FmPath@Base 0.8.0
 _ZN2Fm15PlacesModelItemC2EPKc7QStringP7_FmPath@Base 0.8.0
 _ZN2Fm15PlacesModelItemC2Ev@Base 0.8.0
 _ZN2Fm15PlacesModelItemD0Ev@Base 0.8.0
 _ZN2Fm15PlacesModelItemD1Ev@Base 0.8.0
 _ZN2Fm15PlacesModelItemD2Ev@Base 0.8.0
 _ZN2Fm15ThumbnailLoader10scaleImageEP8_GObjectii@Base 0.8.0
 _ZN2Fm15ThumbnailLoader10writeImageEP8_GObjectPKc@Base 0.8.0
 _ZN2Fm15ThumbnailLoader11rotateImageEP8_GObjecti@Base 0.8.0
 _ZN2Fm15ThumbnailLoader12getImageTextEP8_GObjectPKc@Base 0.8.0
 _ZN2Fm15ThumbnailLoader12setImageTextEP8_GObjectPKcS4_@Base 0.8.0
 _ZN2Fm15ThumbnailLoader13getImageWidthEP8_GObject@Base 0.8.0
 _ZN2Fm15ThumbnailLoader14getImageHeightEP8_GObject@Base 0.8.0
 _ZN2Fm15ThumbnailLoader15localFilesOnly_E@Base 0.8.0
 _ZN2Fm15ThumbnailLoader17readImageFromFileEPKc@Base 0.8.0
 _ZN2Fm15ThumbnailLoader18theThumbnailLoaderE@Base 0.8.0
 _ZN2Fm15ThumbnailLoader19readImageFromStreamEP13_GInputStreammP13_GCancellable@Base 0.8.0
 _ZN2Fm15ThumbnailLoader21maxThumbnailFileSize_E@Base 0.8.0
 _ZN2Fm15ThumbnailLoader5imageEP18_FmThumbnailLoader@Base 0.8.0
 _ZN2Fm15ThumbnailLoaderC1Ev@Base 0.8.0
 _ZN2Fm15ThumbnailLoaderC2Ev@Base 0.8.0
 _ZN2Fm15ThumbnailLoaderD0Ev@Base 0.8.0
 _ZN2Fm15ThumbnailLoaderD1Ev@Base 0.8.0
 _ZN2Fm15ThumbnailLoaderD2Ev@Base 0.8.0
 _ZN2Fm16AppChooserDialog11qt_metacallEN11QMetaObject4CallEiPPv@Base 0.8.0
 _ZN2Fm16AppChooserDialog11qt_metacastEPKc@Base 0.8.0
 _ZN2Fm16AppChooserDialog11setMimeTypeEP11_FmMimeType@Base 0.8.0
 _ZN2Fm16AppChooserDialog12isSetDefaultEv@Base 0.8.0
 _ZN2Fm16AppChooserDialog12onTabChangedEi@Base 0.8.0
 _ZN2Fm16AppChooserDialog16setCanSetDefaultEb@Base 0.8.0
 _ZN2Fm16AppChooserDialog16staticMetaObjectE@Base 0.8.0
 _ZN2Fm16AppChooserDialog18customCommandToAppEv@Base 0.8.0
 _ZN2Fm16AppChooserDialog18onSelectionChangedEv@Base 0.8.0
 _ZN2Fm16AppChooserDialog6acceptEv@Base 0.8.0
 _ZN2Fm16AppChooserDialogC1EP11_FmMimeTypeP7QWidget6QFlagsIN2Qt10WindowTypeEE@Base 0.8.0
 _ZN2Fm16AppChooserDialogC2EP11_FmMimeTypeP7QWidget6QFlagsIN2Qt10WindowTypeEE@Base 0.8.0
 _ZN2Fm16AppChooserDialogD0Ev@Base 0.8.0
 _ZN2Fm16AppChooserDialogD1Ev@Base 0.8.0
 _ZN2Fm16AppChooserDialogD2Ev@Base 0.8.0
 _ZN2Fm16DirTreeModelItem10freeFolderEv@Base 0.8.0
 _ZN2Fm16DirTreeModelItem10insertItemEPS0_@Base 0.8.0
 _ZN2Fm16DirTreeModelItem10loadFolderEv@Base 0.8.0
 _ZN2Fm16DirTreeModelItem12unloadFolderEv@Base 0.8.0
 _ZN2Fm16DirTreeModelItem13childFromNameEPKcPi@Base 0.8.0
 _ZN2Fm16DirTreeModelItem13setShowHiddenEb@Base 0.8.0
 _ZN2Fm16DirTreeModelItem14insertFileInfoEP11_FmFileInfo@Base 0.8.0
 _ZN2Fm16DirTreeModelItem18onFolderFilesAddedEP9_FmFolderP7_GSListPv@Base 0.8.0
 _ZN2Fm16DirTreeModelItem19addPlaceHolderChildEv@Base 0.8.0
 _ZN2Fm16DirTreeModelItem20onFolderFilesChangedEP9_FmFolderP7_GSListPv@Base 0.8.0
 _ZN2Fm16DirTreeModelItem20onFolderFilesRemovedEP9_FmFolderP7_GSListPv@Base 0.8.0
 _ZN2Fm16DirTreeModelItem21onFolderFinishLoadingEP9_FmFolderPv@Base 0.8.0
 _ZN2Fm16DirTreeModelItem5indexEv@Base 0.8.0
 _ZN2Fm16DirTreeModelItemC1EP11_FmFileInfoPNS_12DirTreeModelEPS0_@Base 0.8.0
 _ZN2Fm16DirTreeModelItemC1Ev@Base 0.8.0
 _ZN2Fm16DirTreeModelItemC2EP11_FmFileInfoPNS_12DirTreeModelEPS0_@Base 0.8.0
 _ZN2Fm16DirTreeModelItemC2Ev@Base 0.8.0
 _ZN2Fm16DirTreeModelItemD1Ev@Base 0.8.0
 _ZN2Fm16DirTreeModelItemD2Ev@Base 0.8.0
 _ZN2Fm16ProxyFolderModel11qt_metacallEN11QMetaObject4CallEiPPv@Base 0.8.0
 _ZN2Fm16ProxyFolderModel11qt_metacastEPKc@Base 0.8.0
 _ZN2Fm16ProxyFolderModel12removeFilterEPNS_22ProxyFolderModelFilterE@Base 0.8.0
 _ZN2Fm16ProxyFolderModel13setShowHiddenEb@Base 0.8.0
 _ZN2Fm16ProxyFolderModel14setFolderFirstEb@Base 0.8.0
 _ZN2Fm16ProxyFolderModel14setSourceModelEP18QAbstractItemModel@Base 0.8.0
 _ZN2Fm16ProxyFolderModel16setThumbnailSizeEi@Base 0.8.0
 _ZN2Fm16ProxyFolderModel16staticMetaObjectE@Base 0.8.0
 _ZN2Fm16ProxyFolderModel17onThumbnailLoadedERK11QModelIndexi@Base 0.8.0
 _ZN2Fm16ProxyFolderModel17setShowThumbnailsEb@Base 0.8.0
 _ZN2Fm16ProxyFolderModel17sortFilterChangedEv@Base 0.8.0
 _ZN2Fm16ProxyFolderModel4sortEiN2Qt9SortOrderE@Base 0.8.0
 _ZN2Fm16ProxyFolderModel9addFilterEPNS_22ProxyFolderModelFilterE@Base 0.8.0
 _ZN2Fm16ProxyFolderModelC1EP7QObject@Base 0.8.0
 _ZN2Fm16ProxyFolderModelC2EP7QObject@Base 0.8.0
 _ZN2Fm16ProxyFolderModelD0Ev@Base 0.8.0
 _ZN2Fm16ProxyFolderModelD1Ev@Base 0.8.0
 _ZN2Fm16ProxyFolderModelD2Ev@Base 0.8.0
 _ZN2Fm17CachedFolderModel11qt_metacallEN11QMetaObject4CallEiPPv@Base 0.8.0
 _ZN2Fm17CachedFolderModel11qt_metacastEPKc@Base 0.8.0
 _ZN2Fm17CachedFolderModel13modelFromPathEP7_FmPath@Base 0.8.0
 _ZN2Fm17CachedFolderModel15modelFromFolderEP9_FmFolder@Base 0.8.0
 _ZN2Fm17CachedFolderModel16staticMetaObjectE@Base 0.8.0
 _ZN2Fm17CachedFolderModel5unrefEv@Base 0.8.0
 _ZN2Fm17CachedFolderModelC1EP9_FmFolder@Base 0.8.0
 _ZN2Fm17CachedFolderModelC2EP9_FmFolder@Base 0.8.0
 _ZN2Fm17CachedFolderModelD0Ev@Base 0.8.0
 _ZN2Fm17CachedFolderModelD1Ev@Base 0.8.0
 _ZN2Fm17CachedFolderModelD2Ev@Base 0.8.0
 _ZN2Fm17pathListFromQUrlsE5QListI4QUrlE@Base 0.8.0
 _ZN2Fm18AppChooserComboBox11qt_metacallEN11QMetaObject4CallEiPPv@Base 0.8.0
 _ZN2Fm18AppChooserComboBox11qt_metacastEPKc@Base 0.8.0
 _ZN2Fm18AppChooserComboBox11selectedAppEv@Base 0.8.0
 _ZN2Fm18AppChooserComboBox11setMimeTypeEP11_FmMimeType@Base 0.8.0
 _ZN2Fm18AppChooserComboBox16staticMetaObjectE@Base 0.8.0
 _ZN2Fm18AppChooserComboBox21onCurrentIndexChangedEi@Base 0.8.0
 _ZN2Fm18AppChooserComboBox9isChangedEv@Base 0.8.0
 _ZN2Fm18AppChooserComboBoxC1EP7QWidget@Base 0.8.0
 _ZN2Fm18AppChooserComboBoxC2EP7QWidget@Base 0.8.0
 _ZN2Fm18AppChooserComboBoxD0Ev@Base 0.8.0
 _ZN2Fm18AppChooserComboBoxD1Ev@Base 0.8.0
 _ZN2Fm18AppChooserComboBoxD2Ev@Base 0.8.0
 _ZN2Fm18FolderItemDelegate11qt_metacallEN11QMetaObject4CallEiPPv@Base 0.8.0
 _ZN2Fm18FolderItemDelegate11qt_metacastEPKc@Base 0.8.0
 _ZN2Fm18FolderItemDelegate16staticMetaObjectE@Base 0.8.0
 _ZN2Fm18FolderItemDelegate17iconModeFromStateE6QFlagsIN6QStyle9StateFlagEE@Base 0.8.0
 _ZN2Fm18FolderItemDelegateC1EP17QAbstractItemViewP7QObject@Base 0.8.0
 _ZN2Fm18FolderItemDelegateC2EP17QAbstractItemViewP7QObject@Base 0.8.0
 _ZN2Fm18FolderItemDelegateD0Ev@Base 0.8.0
 _ZN2Fm18FolderItemDelegateD1Ev@Base 0.8.0
 _ZN2Fm18FolderItemDelegateD2Ev@Base 0.8.0
 _ZN2Fm18execModelessDialogEP7QDialog@Base 0.8.0
 _ZN2Fm19EditBookmarksDialog11qt_metacallEN11QMetaObject4CallEiPPv@Base 0.8.0
 _ZN2Fm19EditBookmarksDialog11qt_metacastEPKc@Base 0.8.0
 _ZN2Fm19EditBookmarksDialog12onRemoveItemEv@Base 0.8.0
 _ZN2Fm19EditBookmarksDialog16staticMetaObjectE@Base 0.8.0
 _ZN2Fm19EditBookmarksDialog6acceptEv@Base 0.8.0
 _ZN2Fm19EditBookmarksDialog9onAddItemEv@Base 0.8.0
 _ZN2Fm19EditBookmarksDialogC1EP12_FmBookmarksP7QWidget6QFlagsIN2Qt10WindowTypeEE@Base 0.8.0
 _ZN2Fm19EditBookmarksDialogC2EP12_FmBookmarksP7QWidget6QFlagsIN2Qt10WindowTypeEE@Base 0.8.0
 _ZN2Fm19EditBookmarksDialogD0Ev@Base 0.8.0
 _ZN2Fm19EditBookmarksDialogD1Ev@Base 0.8.0
 _ZN2Fm19EditBookmarksDialogD2Ev@Base 0.8.0
 _ZN2Fm19FileOperationDialog10setCurFileE7QString@Base 0.8.0
 _ZN2Fm19FileOperationDialog10setPercentEj@Base 0.8.0
 _ZN2Fm19FileOperationDialog11qt_metacallEN11QMetaObject4CallEiPPv@Base 0.8.0
 _ZN2Fm19FileOperationDialog11qt_metacastEPKc@Base 0.8.0
 _ZN2Fm19FileOperationDialog11setDestPathEP7_FmPath@Base 0.8.0
 _ZN2Fm19FileOperationDialog11setPreparedEv@Base 0.8.0
 _ZN2Fm19FileOperationDialog14setSourceFilesEP11_FmPathList@Base 0.8.0
 _ZN2Fm19FileOperationDialog16staticMetaObjectE@Base 0.8.0
 _ZN2Fm19FileOperationDialog3askE7QStringPKPc@Base 0.8.0
 _ZN2Fm19FileOperationDialog5errorEP7_GError18FmJobErrorSeverity@Base 0.8.0
 _ZN2Fm19FileOperationDialog6rejectEv@Base 0.8.0
 _ZN2Fm19FileOperationDialog9askRenameEP11_FmFileInfoS2_R7QString@Base 0.8.0
 _ZN2Fm19FileOperationDialogC1EPNS_13FileOperationE@Base 0.8.0
 _ZN2Fm19FileOperationDialogC2EPNS_13FileOperationE@Base 0.8.0
 _ZN2Fm19FileOperationDialogD0Ev@Base 0.8.0
 _ZN2Fm19FileOperationDialogD1Ev@Base 0.8.0
 _ZN2Fm19FileOperationDialogD2Ev@Base 0.8.0
 _ZN2Fm19cutFilesToClipboardEP11_FmPathList@Base 0.8.0
 _ZN2Fm20PlacesModelMountItem6updateEv@Base 0.8.0
 _ZN2Fm20PlacesModelMountItemC1EP7_GMount@Base 0.8.0
 _ZN2Fm20PlacesModelMountItemC2EP7_GMount@Base 0.8.0
 _ZN2Fm20PlacesModelMountItemD0Ev@Base 0.8.0
 _ZN2Fm20PlacesModelMountItemD1Ev@Base 0.8.0
 _ZN2Fm20PlacesModelMountItemD2Ev@Base 0.8.0
 _ZN2Fm20copyFilesToClipboardEP11_FmPathList@Base 0.8.0
 _ZN2Fm20isUriSchemeSupportedEPKc@Base 0.8.0
 _ZN2Fm21PlacesModelVolumeItem6updateEv@Base 0.8.0
 _ZN2Fm21PlacesModelVolumeItem9isMountedEv@Base 0.8.0
 _ZN2Fm21PlacesModelVolumeItemC1EP8_GVolume@Base 0.8.0
 _ZN2Fm21PlacesModelVolumeItemC2EP8_GVolume@Base 0.8.0
 _ZN2Fm21PlacesModelVolumeItemD0Ev@Base 0.8.0
 _ZN2Fm21PlacesModelVolumeItemD1Ev@Base 0.8.0
 _ZN2Fm21PlacesModelVolumeItemD2Ev@Base 0.8.0
 _ZN2Fm23PlacesModelBookmarkItemC1EP15_FmBookmarkItem@Base 0.8.0
 _ZN2Fm23PlacesModelBookmarkItemC2EP15_FmBookmarkItem@Base 0.8.0
 _ZN2Fm23pasteFilesFromClipboardEP7_FmPathP7QWidget@Base 0.8.0
 _ZN2Fm7LibFmQt10translatorEv@Base 0.8.0
 _ZN2Fm7LibFmQtC1Ev@Base 0.8.0
 _ZN2Fm7LibFmQtC2Ev@Base 0.8.0
 _ZN2Fm7LibFmQtD1Ev@Base 0.8.0
 _ZN2Fm7LibFmQtD2Ev@Base 0.8.0
 _ZN2Fm8FileMenu10createMenuEP15_FmFileInfoListP11_FmFileInfoP7_FmPath@Base 0.8.0
 _ZN2Fm8FileMenu10onCompressEv@Base 0.8.0
 _ZN2Fm8FileMenu11qt_metacallEN11QMetaObject4CallEiPPv@Base 0.8.0
 _ZN2Fm8FileMenu11qt_metacastEPKc@Base 0.8.0
 _ZN2Fm8FileMenu11setUseTrashEb@Base 0.8.0
 _ZN2Fm8FileMenu13onExtractHereEv@Base 0.8.0
 _ZN2Fm8FileMenu14onCutTriggeredEv@Base 0.8.0
 _ZN2Fm8FileMenu15onCopyTriggeredEv@Base 0.8.0
 _ZN2Fm8FileMenu15onOpenTriggeredEv@Base 0.8.0
 _ZN2Fm8FileMenu16onPasteTriggeredEv@Base 0.8.0
 _ZN2Fm8FileMenu16openFilesWithAppEP9_GAppInfo@Base 0.8.0
 _ZN2Fm8FileMenu16staticMetaObjectE@Base 0.8.0
 _ZN2Fm8FileMenu17onDeleteTriggeredEv@Base 0.8.0
 _ZN2Fm8FileMenu17onRenameTriggeredEv@Base 0.8.0
 _ZN2Fm8FileMenu19addCustomActionItemEP5QMenuP17_FmFileActionItem@Base 0.8.0
 _ZN2Fm8FileMenu19onOpenWithTriggeredEv@Base 0.8.0
 _ZN2Fm8FileMenu22onApplicationTriggeredEv@Base 0.8.0
 _ZN2Fm8FileMenu23onCustomActionTrigerredEv@Base 0.8.0
 _ZN2Fm8FileMenu25onFilePropertiesTriggeredEv@Base 0.8.0
 _ZN2Fm8FileMenu9onExtractEv@Base 0.8.0
 _ZN2Fm8FileMenuC1EP15_FmFileInfoListP11_FmFileInfoP7_FmPathP7QWidget@Base 0.8.0
 _ZN2Fm8FileMenuC1EP15_FmFileInfoListP11_FmFileInfoP7_FmPathRK7QStringP7QWidget@Base 0.8.0
 _ZN2Fm8FileMenuC2EP15_FmFileInfoListP11_FmFileInfoP7_FmPathP7QWidget@Base 0.8.0
 _ZN2Fm8FileMenuC2EP15_FmFileInfoListP11_FmFileInfoP7_FmPathRK7QStringP7QWidget@Base 0.8.0
 _ZN2Fm8FileMenuD0Ev@Base 0.8.0
 _ZN2Fm8FileMenuD1Ev@Base 0.8.0
 _ZN2Fm8FileMenuD2Ev@Base 0.8.0
 _ZN2Fm8PathEdit11qt_metacallEN11QMetaObject4CallEiPPv@Base 0.8.0
 _ZN2Fm8PathEdit11qt_metacastEPKc@Base 0.8.0
 _ZN2Fm8PathEdit12focusInEventEP11QFocusEvent@Base 0.8.0
 _ZN2Fm8PathEdit13focusOutEventEP11QFocusEvent@Base 0.8.0
 _ZN2Fm8PathEdit13freeCompleterEv@Base 0.8.0
 _ZN2Fm8PathEdit13onJobFinishedEPNS_7JobDataE@Base 0.8.0
 _ZN2Fm8PathEdit13onTextChangedERK7QString@Base 0.8.0
 _ZN2Fm8PathEdit14_onJobFinishedEPv@Base 0.8.0
 _ZN2Fm8PathEdit15reloadCompleterEb@Base 0.8.0
 _ZN2Fm8PathEdit16staticMetaObjectE@Base 0.8.0
 _ZN2Fm8PathEdit7jobFuncEP16_GIOSchedulerJobP13_GCancellablePv@Base 0.8.0
 _ZN2Fm8PathEditC1EP7QWidget@Base 0.8.0
 _ZN2Fm8PathEditC2EP7QWidget@Base 0.8.0
 _ZN2Fm8PathEditD0Ev@Base 0.8.0
 _ZN2Fm8PathEditD1Ev@Base 0.8.0
 _ZN2Fm8PathEditD2Ev@Base 0.8.0
 _ZN2Fm8SidePane10modeByNameEPKc@Base 0.8.0
 _ZN2Fm8SidePane10setHomeDirEPKc@Base 0.8.0
 _ZN2Fm8SidePane11initDirTreeEv@Base 0.8.0
 _ZN2Fm8SidePane11modeChangedEv@Base 0.8.0
 _ZN2Fm8SidePane11qt_metacallEN11QMetaObject4CallEiPPv@Base 0.8.0
 _ZN2Fm8SidePane11qt_metacastEPKc@Base 0.8.0
 _ZN2Fm8SidePane11setIconSizeE5QSize@Base 0.8.0
 _ZN2Fm8SidePane13setShowHiddenEb@Base 0.8.0
 _ZN2Fm8SidePane14chdirRequestedEiP7_FmPath@Base 0.8.0
 _ZN2Fm8SidePane14setCurrentPathEP7_FmPath@Base 0.8.0
 _ZN2Fm8SidePane16staticMetaObjectE@Base 0.8.0
 _ZN2Fm8SidePane26onComboCurrentIndexChangedEi@Base 0.8.0
 _ZN2Fm8SidePane26onPlacesViewChdirRequestedEiP7_FmPath@Base 0.8.0
 _ZN2Fm8SidePane27onDirTreeViewChdirRequestedEiP7_FmPath@Base 0.8.0
 _ZN2Fm8SidePane7setModeENS0_4ModeE@Base 0.8.0
 _ZN2Fm8SidePane8modeNameENS0_4ModeE@Base 0.8.0
 _ZN2Fm8SidePaneC1EP7QWidget@Base 0.8.0
 _ZN2Fm8SidePaneC2EP7QWidget@Base 0.8.0
 _ZN2Fm8SidePaneD0Ev@Base 0.8.0
 _ZN2Fm8SidePaneD1Ev@Base 0.8.0
 _ZN2Fm8SidePaneD2Ev@Base 0.8.0
 _ZN2Fm9IconTheme11eventFilterEP7QObjectP6QEvent@Base 0.8.0
 _ZN2Fm9IconTheme11qt_metacallEN11QMetaObject4CallEiPPv@Base 0.8.0
 _ZN2Fm9IconTheme11qt_metacastEPKc@Base 0.8.0
 _ZN2Fm9IconTheme12checkChangedEv@Base 0.8.0
 _ZN2Fm9IconTheme13iconFromNamesEPKPKc@Base 0.8.0
 _ZN2Fm9IconTheme16convertFromGIconEP6_GIcon@Base 0.8.0
 _ZN2Fm9IconTheme16staticMetaObjectE@Base 0.8.0
 _ZN2Fm9IconTheme4iconEP6_GIcon@Base 0.8.0
 _ZN2Fm9IconTheme4iconEP7_FmIcon@Base 0.8.0
 _ZN2Fm9IconTheme7changedEv@Base 0.8.0
 _ZN2Fm9IconTheme8instanceEv@Base 0.8.0
 _ZN2Fm9IconThemeC1Ev@Base 0.8.0
 _ZN2Fm9IconThemeC2Ev@Base 0.8.0
 _ZN2Fm9IconThemeD0Ev@Base 0.8.0
 _ZN2Fm9IconThemeD1Ev@Base 0.8.0
 _ZN2Fm9IconThemeD2Ev@Base 0.8.0
 _ZN2Fm9gidToNameEj@Base 0.8.0
 _ZN2Fm9uidToNameEj@Base 0.8.0
 _ZNK2Fm10FolderMenu10metaObjectEv@Base 0.8.0
 _ZNK2Fm10FolderView10metaObjectEv@Base 0.8.0
 _ZNK2Fm10FolderView12selectedRowsEi@Base 0.8.0
 _ZNK2Fm10FolderView13selectedFilesEv@Base 0.8.0
 _ZNK2Fm10FolderView14selectionModelEv@Base 0.8.0
 _ZNK2Fm10FolderView15selectedIndexesEv@Base 0.8.0
 _ZNK2Fm10FolderView17selectedFilePathsEv@Base 0.8.0
 _ZNK2Fm10FolderView5modelEv@Base 0.8.0
 _ZNK2Fm10FolderView8iconSizeENS0_8ViewModeE@Base 0.8.0
 _ZNK2Fm10FolderView8viewModeEv@Base 0.8.0
 _ZNK2Fm10FolderView9childViewEv@Base 0.8.0
 _ZNK2Fm10FontButton10metaObjectEv@Base 0.8.0
 _ZNK2Fm10PlacesView10metaObjectEv@Base 0.8.0
 _ZNK2Fm11AppMenuView10metaObjectEv@Base 0.8.0
 _ZNK2Fm11ColorButton10metaObjectEv@Base 0.8.0
 _ZNK2Fm11DirTreeView10metaObjectEv@Base 0.8.0
 _ZNK2Fm11FolderModel10headerDataEiN2Qt11OrientationEi@Base 0.8.0
 _ZNK2Fm11FolderModel10metaObjectEv@Base 0.8.0
 _ZNK2Fm11FolderModel11columnCountERK11QModelIndex@Base 0.8.0
 _ZNK2Fm11FolderModel13itemFromIndexERK11QModelIndex@Base 0.8.0
 _ZNK2Fm11FolderModel17fileInfoFromIndexERK11QModelIndex@Base 0.8.0
 _ZNK2Fm11FolderModel20supportedDropActionsEv@Base 0.8.0
 _ZNK2Fm11FolderModel4dataERK11QModelIndexi@Base 0.8.0
 _ZNK2Fm11FolderModel5flagsERK11QModelIndex@Base 0.8.0
 _ZNK2Fm11FolderModel5indexEiiRK11QModelIndex@Base 0.8.0
 _ZNK2Fm11FolderModel6parentERK11QModelIndex@Base 0.8.0
 _ZNK2Fm11FolderModel8mimeDataERK5QListI11QModelIndexE@Base 0.8.0
 _ZNK2Fm11FolderModel8rowCountERK11QModelIndex@Base 0.8.0
 _ZNK2Fm11FolderModel9mimeTypesEv@Base 0.8.0
 _ZNK2Fm11PlacesModel10metaObjectEv@Base 0.8.0
 _ZNK2Fm11PlacesModel20supportedDropActionsEv@Base 0.8.0
 _ZNK2Fm11PlacesModel5flagsERK11QModelIndex@Base 0.8.0
 _ZNK2Fm11PlacesModel8mimeDataERK5QListI11QModelIndexE@Base 0.8.0
 _ZNK2Fm11PlacesModel9mimeTypesEv@Base 0.8.0
 _ZNK2Fm12DirTreeModel10metaObjectEv@Base 0.8.0
 _ZNK2Fm12DirTreeModel11columnCountERK11QModelIndex@Base 0.8.0
 _ZNK2Fm12DirTreeModel11hasChildrenERK11QModelIndex@Base 0.8.0
 _ZNK2Fm12DirTreeModel12itemFromPathEP7_FmPath@Base 0.8.0
 _ZNK2Fm12DirTreeModel13indexFromItemEPNS_16DirTreeModelItemE@Base 0.8.0
 _ZNK2Fm12DirTreeModel13indexFromPathEP7_FmPath@Base 0.8.0
 _ZNK2Fm12DirTreeModel13itemFromIndexERK11QModelIndex@Base 0.8.0
 _ZNK2Fm12DirTreeModel4dataERK11QModelIndexi@Base 0.8.0
 _ZNK2Fm12DirTreeModel5flagsERK11QModelIndex@Base 0.8.0
 _ZNK2Fm12DirTreeModel5indexEiiRK11QModelIndex@Base 0.8.0
 _ZNK2Fm12DirTreeModel6parentERK11QModelIndex@Base 0.8.0
 _ZNK2Fm12DirTreeModel8rowCountERK11QModelIndex@Base 0.8.0
 _ZNK2Fm12RenameDialog10metaObjectEv@Base 0.8.0
 _ZNK2Fm13BrowseHistory10canForwardEv@Base 0.8.0
 _ZNK2Fm13BrowseHistory11canBackwardEv@Base 0.8.0
 _ZNK2Fm13FileOperation10metaObjectEv@Base 0.8.0
 _ZNK2Fm14MountOperation10metaObjectEv@Base 0.8.0
 _ZNK2Fm15FilePropsDialog10metaObjectEv@Base 0.8.0
 _ZNK2Fm15PlacesModelItem4dataEi@Base 0.8.0
 _ZNK2Fm16AppChooserDialog10metaObjectEv@Base 0.8.0
 _ZNK2Fm16DirTreeModelItem13childFromPathEP7_FmPathb@Base 0.8.0
 _ZNK2Fm16ProxyFolderModel10metaObjectEv@Base 0.8.0
 _ZNK2Fm16ProxyFolderModel16filterAcceptsRowEiRK11QModelIndex@Base 0.8.0
 _ZNK2Fm16ProxyFolderModel17fileInfoFromIndexERK11QModelIndex@Base 0.8.0
 _ZNK2Fm16ProxyFolderModel4dataERK11QModelIndexi@Base 0.8.0
 _ZNK2Fm16ProxyFolderModel8lessThanERK11QModelIndexS3_@Base 0.8.0
 _ZNK2Fm17CachedFolderModel10metaObjectEv@Base 0.8.0
 _ZNK2Fm18AppChooserComboBox10metaObjectEv@Base 0.8.0
 _ZNK2Fm18FolderItemDelegate10metaObjectEv@Base 0.8.0
 _ZNK2Fm18FolderItemDelegate5paintEP8QPainterRK20QStyleOptionViewItemRK11QModelIndex@Base 0.8.0
 _ZNK2Fm18FolderItemDelegate8drawTextEP8QPainterR22QStyleOptionViewItemV4R6QRectF@Base 0.8.0
 _ZNK2Fm18FolderItemDelegate8sizeHintERK20QStyleOptionViewItemRK11QModelIndex@Base 0.8.0
 _ZNK2Fm19EditBookmarksDialog10metaObjectEv@Base 0.8.0
 _ZNK2Fm19FileOperationDialog10metaObjectEv@Base 0.8.0
 _ZNK2Fm8FileMenu10metaObjectEv@Base 0.8.0
 _ZNK2Fm8PathEdit10metaObjectEv@Base 0.8.0
 _ZNK2Fm8SidePane10metaObjectEv@Base 0.8.0
 _ZNK2Fm9IconTheme10metaObjectEv@Base 0.8.0
 _ZTIN2Fm10FolderMenuE@Base 0.8.0
 _ZTIN2Fm10FolderViewE@Base 0.8.0
 _ZTIN2Fm10FontButtonE@Base 0.8.0
 _ZTIN2Fm10PlacesViewE@Base 0.8.0
 _ZTIN2Fm11AppMenuViewE@Base 0.8.0
 _ZTIN2Fm11ColorButtonE@Base 0.8.0
 _ZTIN2Fm11DirTreeViewE@Base 0.8.0
 _ZTIN2Fm11FolderModelE@Base 0.8.0
 _ZTIN2Fm11PlacesModel10ItemActionE@Base 0.8.0
 _ZTIN2Fm11PlacesModelE@Base 0.8.0
 _ZTIN2Fm12DirTreeModelE@Base 0.8.0
 _ZTIN2Fm12FileLauncherE@Base 0.8.0
 _ZTIN2Fm12RenameDialogE@Base 0.8.0
 _ZTIN2Fm13BrowseHistoryE@Base 0.8.0
 _ZTIN2Fm13FileOperationE@Base 0.8.0
 _ZTIN2Fm14BookmarkActionE@Base 0.8.0
 _ZTIN2Fm14MountOperationE@Base 0.8.0
 _ZTIN2Fm15FilePropsDialogE@Base 0.8.0
 _ZTIN2Fm15FolderModelItemE@Base 0.8.0
 _ZTIN2Fm15PlacesModelItemE@Base 0.8.0
 _ZTIN2Fm15ThumbnailLoaderE@Base 0.8.0
 _ZTIN2Fm16AppChooserDialogE@Base 0.8.0
 _ZTIN2Fm16ProxyFolderModelE@Base 0.8.0
 _ZTIN2Fm17CachedFolderModelE@Base 0.8.0
 _ZTIN2Fm18AppChooserComboBoxE@Base 0.8.0
 _ZTIN2Fm18FolderItemDelegateE@Base 0.8.0
 _ZTIN2Fm19EditBookmarksDialogE@Base 0.8.0
 _ZTIN2Fm19FileOperationDialogE@Base 0.8.0
 _ZTIN2Fm20PlacesModelMountItemE@Base 0.8.0
 _ZTIN2Fm21PlacesModelVolumeItemE@Base 0.8.0
 _ZTIN2Fm23PlacesModelBookmarkItemE@Base 0.8.0
 _ZTIN2Fm8FileMenuE@Base 0.8.0
 _ZTIN2Fm8PathEditE@Base 0.8.0
 _ZTIN2Fm8SidePaneE@Base 0.8.0
 _ZTIN2Fm9IconThemeE@Base 0.8.0
 _ZTSN2Fm10FolderMenuE@Base 0.8.0
 _ZTSN2Fm10FolderViewE@Base 0.8.0
 _ZTSN2Fm10FontButtonE@Base 0.8.0
 _ZTSN2Fm10PlacesViewE@Base 0.8.0
 _ZTSN2Fm11AppMenuViewE@Base 0.8.0
 _ZTSN2Fm11ColorButtonE@Base 0.8.0
 _ZTSN2Fm11DirTreeViewE@Base 0.8.0
 _ZTSN2Fm11FolderModelE@Base 0.8.0
 _ZTSN2Fm11PlacesModel10ItemActionE@Base 0.8.0
 _ZTSN2Fm11PlacesModelE@Base 0.8.0
 _ZTSN2Fm12DirTreeModelE@Base 0.8.0
 _ZTSN2Fm12FileLauncherE@Base 0.8.0
 _ZTSN2Fm12RenameDialogE@Base 0.8.0
 _ZTSN2Fm13BrowseHistoryE@Base 0.8.0
 _ZTSN2Fm13FileOperationE@Base 0.8.0
 _ZTSN2Fm14BookmarkActionE@Base 0.8.0
 _ZTSN2Fm14MountOperationE@Base 0.8.0
 _ZTSN2Fm15FilePropsDialogE@Base 0.8.0
 _ZTSN2Fm15FolderModelItemE@Base 0.8.0
 _ZTSN2Fm15PlacesModelItemE@Base 0.8.0
 _ZTSN2Fm15ThumbnailLoaderE@Base 0.8.0
 _ZTSN2Fm16AppChooserDialogE@Base 0.8.0
 _ZTSN2Fm16ProxyFolderModelE@Base 0.8.0
 _ZTSN2Fm17CachedFolderModelE@Base 0.8.0
 _ZTSN2Fm18AppChooserComboBoxE@Base 0.8.0
 _ZTSN2Fm18FolderItemDelegateE@Base 0.8.0
 _ZTSN2Fm19EditBookmarksDialogE@Base 0.8.0
 _ZTSN2Fm19FileOperationDialogE@Base 0.8.0
 _ZTSN2Fm20PlacesModelMountItemE@Base 0.8.0
 _ZTSN2Fm21PlacesModelVolumeItemE@Base 0.8.0
 _ZTSN2Fm23PlacesModelBookmarkItemE@Base 0.8.0
 _ZTSN2Fm8FileMenuE@Base 0.8.0
 _ZTSN2Fm8PathEditE@Base 0.8.0
 _ZTSN2Fm8SidePaneE@Base 0.8.0
 _ZTSN2Fm9IconThemeE@Base 0.8.0
 _ZTVN2Fm10FolderMenuE@Base 0.8.0
 _ZTVN2Fm10FolderViewE@Base 0.8.0
 _ZTVN2Fm10FontButtonE@Base 0.8.0
 _ZTVN2Fm10PlacesViewE@Base 0.8.0
 _ZTVN2Fm11AppMenuViewE@Base 0.8.0
 _ZTVN2Fm11ColorButtonE@Base 0.8.0
 _ZTVN2Fm11DirTreeViewE@Base 0.8.0
 _ZTVN2Fm11FolderModelE@Base 0.8.0
 _ZTVN2Fm11PlacesModel10ItemActionE@Base 0.8.0
 _ZTVN2Fm11PlacesModelE@Base 0.8.0
 _ZTVN2Fm12DirTreeModelE@Base 0.8.0
 _ZTVN2Fm12FileLauncherE@Base 0.8.0
 _ZTVN2Fm12RenameDialogE@Base 0.8.0
 _ZTVN2Fm13BrowseHistoryE@Base 0.8.0
 _ZTVN2Fm13FileOperationE@Base 0.8.0
 _ZTVN2Fm14BookmarkActionE@Base 0.8.0
 _ZTVN2Fm14MountOperationE@Base 0.8.0
 _ZTVN2Fm15FilePropsDialogE@Base 0.8.0
 _ZTVN2Fm15FolderModelItemE@Base 0.8.0
 _ZTVN2Fm15PlacesModelItemE@Base 0.8.0
 _ZTVN2Fm15ThumbnailLoaderE@Base 0.8.0
 _ZTVN2Fm16AppChooserDialogE@Base 0.8.0
 _ZTVN2Fm16ProxyFolderModelE@Base 0.8.0
 _ZTVN2Fm17CachedFolderModelE@Base 0.8.0
 _ZTVN2Fm18AppChooserComboBoxE@Base 0.8.0
 _ZTVN2Fm18FolderItemDelegateE@Base 0.8.0
 _ZTVN2Fm19EditBookmarksDialogE@Base 0.8.0
 _ZTVN2Fm19FileOperationDialogE@Base 0.8.0
 _ZTVN2Fm20PlacesModelMountItemE@Base 0.8.0
 _ZTVN2Fm21PlacesModelVolumeItemE@Base 0.8.0
 _ZTVN2Fm23PlacesModelBookmarkItemE@Base 0.8.0
 _ZTVN2Fm8FileMenuE@Base 0.8.0
 _ZTVN2Fm8PathEditE@Base 0.8.0
 _ZTVN2Fm8SidePaneE@Base 0.8.0
 _ZTVN2Fm9IconThemeE@Base 0.8.0
 _ZThn16_N2Fm10FolderMenuD0Ev@Base 0.8.0
 _ZThn16_N2Fm10FolderMenuD1Ev@Base 0.8.0
 _ZThn16_N2Fm10FolderViewD0Ev@Base 0.8.0
 _ZThn16_N2Fm10FolderViewD1Ev@Base 0.8.0
 _ZThn16_N2Fm10FontButtonD0Ev@Base 0.8.0
 _ZThn16_N2Fm10FontButtonD1Ev@Base 0.8.0
 _ZThn16_N2Fm10PlacesViewD0Ev@Base 0.8.0
 _ZThn16_N2Fm10PlacesViewD1Ev@Base 0.8.0
 _ZThn16_N2Fm11AppMenuViewD0Ev@Base 0.8.0
 _ZThn16_N2Fm11AppMenuViewD1Ev@Base 0.8.0
 _ZThn16_N2Fm11ColorButtonD0Ev@Base 0.8.0
 _ZThn16_N2Fm11ColorButtonD1Ev@Base 0.8.0
 _ZThn16_N2Fm11DirTreeViewD0Ev@Base 0.8.0
 _ZThn16_N2Fm11DirTreeViewD1Ev@Base 0.8.0
 _ZThn16_N2Fm12RenameDialogD0Ev@Base 0.8.0
 _ZThn16_N2Fm12RenameDialogD1Ev@Base 0.8.0
 _ZThn16_N2Fm15FilePropsDialogD0Ev@Base 0.8.0
 _ZThn16_N2Fm15FilePropsDialogD1Ev@Base 0.8.0
 _ZThn16_N2Fm16AppChooserDialogD0Ev@Base 0.8.0
 _ZThn16_N2Fm16AppChooserDialogD1Ev@Base 0.8.0
 _ZThn16_N2Fm18AppChooserComboBoxD0Ev@Base 0.8.0
 _ZThn16_N2Fm18AppChooserComboBoxD1Ev@Base 0.8.0
 _ZThn16_N2Fm19EditBookmarksDialogD0Ev@Base 0.8.0
 _ZThn16_N2Fm19EditBookmarksDialogD1Ev@Base 0.8.0
 _ZThn16_N2Fm19FileOperationDialogD0Ev@Base 0.8.0
 _ZThn16_N2Fm19FileOperationDialogD1Ev@Base 0.8.0
 _ZThn16_N2Fm8FileMenuD0Ev@Base 0.8.0
 _ZThn16_N2Fm8FileMenuD1Ev@Base 0.8.0
 _ZThn16_N2Fm8PathEditD0Ev@Base 0.8.0
 _ZThn16_N2Fm8PathEditD1Ev@Base 0.8.0
 _ZThn16_N2Fm8SidePaneD0Ev@Base 0.8.0
 _ZThn16_N2Fm8SidePaneD1Ev@Base 0.8.0
